target datalayout = "e-m:e-p270:32:32-p271:32:32-p272:64:64-i64:64-i128:128-f80:128-n8:16:32:64-S128"
target triple = "x86_64-pc-linux-gnu"

; Function Attrs: mustprogress uwtable
define noundef ptr @_ZN10open_spiel10algorithms9ISMCTSBot18LookupOrCreateNodeERKNS_5StateE(ptr noundef nonnull align 8 dereferenceable(5176) %0, ptr noundef nonnull align 8 dereferenceable(60) %1) #4 align 2 {
  %3 = alloca ptr, align 8
  %4 = alloca ptr, align 8
  %5 = alloca ptr, align 8
  %6 = alloca ptr, align 8
  store ptr %0, ptr %4, align 8
  store ptr %1, ptr %5, align 8
  %7 = load ptr, ptr %4, align 8
  %8 = load ptr, ptr %5, align 8
  %9 = call noundef ptr @_ZN10open_spiel10algorithms9ISMCTSBot10LookupNodeERKNS_5StateE(ptr noundef nonnull align 8 dereferenceable(5176) %7, ptr noundef nonnull align 8 dereferenceable(60) %8)
  store ptr %9, ptr %6, align 8
  %10 = load ptr, ptr %6, align 8
  %11 = icmp ne ptr %10, null
  br i1 %11, label %12, label %14

12:                                               ; preds = %2
  %13 = load ptr, ptr %6, align 8
  store ptr %13, ptr %3, align 8
  br label %17

14:                                               ; preds = %2
  %15 = load ptr, ptr %5, align 8
  %16 = call noundef ptr @_ZN10open_spiel10algorithms9ISMCTSBot13CreateNewNodeERKNS_5StateE(ptr noundef nonnull align 8 dereferenceable(5176) %7, ptr noundef nonnull align 8 dereferenceable(60) %15)
  store ptr %16, ptr %3, align 8
  br label %17

17:                                               ; preds = %14, %12
  %18 = load ptr, ptr %3, align 8
  ret ptr %18
}