; Function Attrs: mustprogress uwtable
define noundef ptr @_ZN10open_spiel10algorithms9ISMCTSBot18LookupOrCreateNodeERKNS_5StateE(ptr noundef nonnull align 8 dereferenceable(5176) %0, ptr noundef nonnull align 8 dereferenceable(60) %1) local_unnamed_addr #4 align 2 {
  %3 = tail call noundef ptr @_ZN10open_spiel10algorithms9ISMCTSBot10LookupNodeERKNS_5StateE(ptr noundef nonnull align 8 dereferenceable(5176) %0, ptr noundef nonnull align 8 dereferenceable(60) %1)
  %.not = icmp eq ptr %3, null
  br i1 %.not, label %4, label %6

4:                                                ; preds = %2
  %5 = tail call noundef ptr @_ZN10open_spiel10algorithms9ISMCTSBot13CreateNewNodeERKNS_5StateE(ptr noundef nonnull align 8 dereferenceable(5176) %0, ptr noundef nonnull align 8 dereferenceable(60) %1)
  br label %6

6:                                                ; preds = %2, %4
  %.0 = phi ptr [ %5, %4 ], [ %3, %2 ]
  ret ptr %.0
}